; Function Attrs: mustprogress nofree norecurse nosync nounwind willreturn memory(read, argmem: readwrite, inaccessiblemem: none) uwtable
define noundef i32 @H5T_patch_file(ptr nocapture noundef %0, ptr noundef %1) local_unnamed_addr #10 {
  %3 = getelementptr inbounds i8, ptr %0, i64 40
  %4 = load ptr, ptr %3, align 8
  %5 = getelementptr inbounds i8, ptr %4, i64 8
  %6 = load i32, ptr %5, align 8
  %.off = add i32 %6, -3
  %switch = icmp ult i32 %.off, 2
  br i1 %switch, label %7, label %10

7:                                                ; preds = %2
  %8 = getelementptr inbounds i8, ptr %0, i64 48
  store ptr %1, ptr %8, align 8
  %9 = getelementptr inbounds i8, ptr %0, i64 8
  store ptr %1, ptr %9, align 8
  br label %10

10:                                               ; preds = %2, %7
  ret i32 0
}